; ModuleID = 'source-C-CXX/53/712.c'
source_filename = "source-C-CXX/53/712.c"
target datalayout = "e-m:e-p270:32:32-p271:32:32-p272:64:64-i64:64-f80:128-n8:16:32:64-S128"
target triple = "x86_64-pc-linux-gnu"

@.str = private unnamed_addr constant [6 x i8] c"%d %d\00", align 1
@.str.1 = private unnamed_addr constant [3 x i8] c"%d\00", align 1

; Function Attrs: nofree nounwind sspstrong uwtable
define dso_local i32 @main() local_unnamed_addr #0 {
  %1 = alloca i32, align 4
  %2 = alloca i32, align 4
  %3 = bitcast i32* %1 to i8*
  call void @llvm.lifetime.start.p0i8(i64 4, i8* nonnull %3) #3
  %4 = bitcast i32* %2 to i8*
  call void @llvm.lifetime.start.p0i8(i64 4, i8* nonnull %4) #3
  %5 = call i32 (i8*, ...) @__isoc99_scanf(i8* getelementptr inbounds ([6 x i8], [6 x i8]* @.str, i64 0, i64 0), i32* nonnull %1, i32* nonnull %2)
  %6 = load i32, i32* %1, align 4, !tbaa !5
  %7 = add nsw i32 %6, -1
  %8 = load i32, i32* %2, align 4
  %9 = icmp slt i32 %6, 1
  br i1 %9, label %10, label %15

10:                                               ; preds = %0
  %11 = icmp eq i32 %6, 0
  br label %12

12:                                               ; preds = %12, %10
  %13 = phi i32 [ %7, %10 ], [ %14, %12 ]
  %14 = add nsw i32 %13, %7
  br i1 %11, label %35, label %12

15:                                               ; preds = %0, %30
  %16 = phi i32 [ %33, %30 ], [ %7, %0 ]
  br label %17

17:                                               ; preds = %15, %23
  %18 = phi i32 [ 0, %15 ], [ %24, %23 ]
  %19 = phi i32 [ %16, %15 ], [ %27, %23 ]
  %20 = phi i32 [ 1, %15 ], [ %28, %23 ]
  %21 = srem i32 %19, %7
  %22 = icmp eq i32 %21, 0
  br i1 %22, label %23, label %30

23:                                               ; preds = %17
  %24 = add nuw nsw i32 %18, 1
  %25 = mul nsw i32 %19, %6
  %26 = sdiv i32 %25, %7
  %27 = add nsw i32 %8, %26
  %28 = add nuw nsw i32 %20, 1
  %29 = icmp slt i32 %20, %6
  br i1 %29, label %17, label %30, !llvm.loop !9

30:                                               ; preds = %17, %23
  %31 = phi i32 [ %24, %23 ], [ %18, %17 ]
  %32 = phi i32 [ %27, %23 ], [ %19, %17 ]
  %33 = add nsw i32 %16, %7
  %34 = icmp eq i32 %31, %6
  br i1 %34, label %35, label %15

35:                                               ; preds = %30, %12
  %36 = phi i32 [ %13, %12 ], [ %32, %30 ]
  %37 = call i32 (i8*, ...) @printf(i8* nonnull dereferenceable(1) getelementptr inbounds ([3 x i8], [3 x i8]* @.str.1, i64 0, i64 0), i32 %36)
  call void @llvm.lifetime.end.p0i8(i64 4, i8* nonnull %4) #3
  call void @llvm.lifetime.end.p0i8(i64 4, i8* nonnull %3) #3
  ret i32 0
}

; Function Attrs: argmemonly mustprogress nofree nosync nounwind willreturn
declare void @llvm.lifetime.start.p0i8(i64 immarg, i8* nocapture) #1

; Function Attrs: nofree nounwind
declare noundef i32 @__isoc99_scanf(i8* nocapture noundef readonly, ...) local_unnamed_addr #2

; Function Attrs: nofree nounwind
declare noundef i32 @printf(i8* nocapture noundef readonly, ...) local_unnamed_addr #2

; Function Attrs: argmemonly mustprogress nofree nosync nounwind willreturn
declare void @llvm.lifetime.end.p0i8(i64 immarg, i8* nocapture) #1


!llvm.module.flags = !{!0, !1, !2, !3}
!llvm.ident = !{!4}

!0 = !{i32 1, !"wchar_size", i32 4}
!1 = !{i32 7, !"PIC Level", i32 2}
!2 = !{i32 7, !"PIE Level", i32 2}
!3 = !{i32 7, !"uwtable", i32 1}
!4 = !{!"clang version 13.0.0"}
!5 = !{!6, !6, i64 0}
!6 = !{!"int", !7, i64 0}
!7 = !{!"omnipotent char", !8, i64 0}
!8 = !{!"Simple C/C++ TBAA"}
!9 = distinct !{!9, !10}
!10 = !{!"llvm.loop.mustprogress"}
